; Function Attrs: nounwind uwtable
define i32 @lv_obj_get_scroll_bottom(ptr noundef %0) local_unnamed_addr #0 {
  %2 = tail call i32 @lv_obj_get_child_count(ptr noundef %0) #5
  %.not39 = icmp eq i32 %2, 0
  br i1 %.not39, label %._crit_edge, label %.lr.ph

.lr.ph:                                           ; preds = %1
  %3 = getelementptr inbounds nuw i8, ptr %0, i64 16
  %wide.trip.count = zext i32 %2 to i64
  br label %4

4:                                                ; preds = %.lr.ph, %17
  %indvars.iv = phi i64 [ 0, %.lr.ph ], [ %indvars.iv.next, %17 ]
  %.038 = phi i32 [ -536870911, %.lr.ph ], [ %.1, %17 ]
  %5 = load ptr, ptr %3, align 8, !tbaa !3
  %6 = load ptr, ptr %5, align 8, !tbaa !18
  %7 = getelementptr inbounds nuw ptr, ptr %6, i64 %indvars.iv
  %8 = load ptr, ptr %7, align 8, !tbaa !19
  %9 = tail call zeroext i1 @lv_obj_has_flag_any(ptr noundef %8, i32 noundef 262145) #5
  br i1 %9, label %17, label %10

10:                                               ; preds = %4
  %11 = getelementptr inbounds nuw i8, ptr %8, i64 52
  %12 = load i32, ptr %11, align 4, !tbaa !20
  %13 = tail call ptr @lv_obj_get_style_prop(ptr noundef %8, i32 noundef 0, i8 noundef zeroext 25) #5
  %14 = ptrtoint ptr %13 to i64
  %.sroa.0.0.extract.trunc.i = trunc i64 %14 to i32
  %15 = add nsw i32 %12, %.sroa.0.0.extract.trunc.i
  %16 = tail call i32 @llvm.smax.i32(i32 %.038, i32 %15)
  br label %17

17:                                               ; preds = %4, %10
  %.1 = phi i32 [ %16, %10 ], [ %.038, %4 ]
  %indvars.iv.next = add nuw nsw i64 %indvars.iv, 1
  %exitcond.not = icmp eq i64 %indvars.iv.next, %wide.trip.count
  br i1 %exitcond.not, label %._crit_edge, label %4, !llvm.loop !21

._crit_edge:                                      ; preds = %17, %1
  %.0.lcssa = phi i32 [ -536870911, %1 ], [ %.1, %17 ]
  %18 = tail call ptr @lv_obj_get_style_prop(ptr noundef %0, i32 noundef 0, i8 noundef zeroext 16) #5
  %19 = tail call ptr @lv_obj_get_style_prop(ptr noundef %0, i32 noundef 0, i8 noundef zeroext 48) #5
  %20 = tail call ptr @lv_obj_get_style_prop(ptr noundef %0, i32 noundef 0, i8 noundef zeroext 52) #5
  %21 = tail call ptr @lv_obj_get_style_prop(ptr noundef %0, i32 noundef 0, i8 noundef zeroext 17) #5
  %22 = ptrtoint ptr %21 to i64
  %.sroa.0.0.extract.trunc.i.i31 = trunc i64 %22 to i32
  %23 = tail call ptr @lv_obj_get_style_prop(ptr noundef %0, i32 noundef 0, i8 noundef zeroext 48) #5
  %24 = ptrtoint ptr %23 to i64
  %.sroa.0.0.extract.trunc.i9.i32 = trunc i64 %24 to i32
  %25 = tail call ptr @lv_obj_get_style_prop(ptr noundef %0, i32 noundef 0, i8 noundef zeroext 52) #5
  %26 = ptrtoint ptr %25 to i64
  %27 = and i64 %26, 1
  %.not.i33 = icmp eq i64 %27, 0
  %28 = select i1 %.not.i33, i32 0, i32 %.sroa.0.0.extract.trunc.i9.i32
  %29 = add nsw i32 %28, %.sroa.0.0.extract.trunc.i.i31
  %.not = icmp eq i32 %.0.lcssa, -536870911
  br i1 %.not, label %34, label %30

30:                                               ; preds = %._crit_edge
  %31 = getelementptr inbounds nuw i8, ptr %0, i64 52
  %32 = load i32, ptr %31, align 4, !tbaa !20
  %.neg = add i32 %29, %.0.lcssa
  %33 = sub i32 %.neg, %32
  br label %34

34:                                               ; preds = %30, %._crit_edge
  %.2 = phi i32 [ %33, %30 ], [ -536870911, %._crit_edge ]
  %35 = tail call i32 @lv_obj_get_self_height(ptr noundef %0) #5
  %36 = tail call i32 @lv_obj_get_height(ptr noundef %0) #5
  %37 = getelementptr inbounds nuw i8, ptr %0, i64 16
  %38 = load ptr, ptr %37, align 8, !tbaa !3
  %39 = icmp eq ptr %38, null
  br i1 %39, label %lv_obj_get_scroll_y.exit, label %40

40:                                               ; preds = %34
  %41 = getelementptr inbounds nuw i8, ptr %38, i64 52
  %42 = load i32, ptr %41, align 4, !tbaa !17
  br label %lv_obj_get_scroll_y.exit

lv_obj_get_scroll_y.exit:                         ; preds = %34, %40
  %.0.i.neg40 = phi i32 [ %42, %40 ], [ 0, %34 ]
  %43 = ptrtoint ptr %20 to i64
  %44 = and i64 %43, 2
  %.not.i = icmp eq i64 %44, 0
  %45 = ptrtoint ptr %19 to i64
  %.sroa.0.0.extract.trunc.i9.i = trunc i64 %45 to i32
  %46 = select i1 %.not.i, i32 0, i32 %.sroa.0.0.extract.trunc.i9.i
  %47 = ptrtoint ptr %18 to i64
  %.sroa.0.0.extract.trunc.i.i = trunc i64 %47 to i32
  %.neg36 = add i32 %46, %.sroa.0.0.extract.trunc.i.i
  %48 = add i32 %.neg36, %29
  %49 = add i32 %48, %35
  %50 = sub i32 %49, %36
  %51 = add i32 %50, %.0.i.neg40
  %52 = tail call i32 @llvm.smax.i32(i32 %.2, i32 %51)
  ret i32 %52
}